target datalayout = "e-m:e-p270:32:32-p271:32:32-p272:64:64-i64:64-i128:128-f80:128-n8:16:32:64-S128"
target triple = "x86_64-pc-linux-gnu"

%struct.FFOutputFormat = type { %struct.AVOutputFormat, i32, i32, ptr, ptr, ptr, ptr, ptr, ptr, ptr, ptr, ptr, ptr, ptr, ptr }
%struct.AVOutputFormat = type { ptr, ptr, ptr, ptr, i32, i32, i32, i32, ptr, ptr }
%struct.AVFormatContext = type { ptr, ptr, ptr, ptr, ptr, i32, i32, ptr, i32, ptr, i32, ptr, ptr, i64, i64, i64, i32, i32, i32, i64, i64, ptr, i32, i32, ptr, i32, i32, i32, i32, ptr, i64, i32, i32, %struct.AVIOInterruptCB, i32, i32, i32, i32, i64, i32, i32, i32, i32, i32, i32, i32, i32, i32, i32, i32, i32, i64, i32, i32, i32, i32, i32, ptr, ptr, ptr, ptr, i32, ptr, ptr, ptr, ptr, i32, ptr, ptr, i64, ptr, ptr, ptr, i64 }
%struct.AVIOInterruptCB = type { ptr, ptr }
%struct.AVStream = type { ptr, i32, i32, ptr, ptr, %struct.AVRational, i64, i64, i64, i32, i32, %struct.AVRational, ptr, %struct.AVRational, %struct.AVPacket, i32, %struct.AVRational, i32 }
%struct.AVPacket = type { ptr, i64, i64, ptr, i32, i32, i32, ptr, i32, i64, i64, ptr, ptr, %struct.AVRational }
%struct.AVRational = type { i32, i32 }
%struct.AVCodecParameters = type { i32, i32, i32, ptr, i32, ptr, i32, i32, i64, i32, i32, i32, i32, i32, i32, %struct.AVRational, %struct.AVRational, i32, i32, i32, i32, i32, i32, i32, %struct.AVChannelLayout, i32, i32, i32, i32, i32, i32 }
%struct.AVChannelLayout = type { i32, i32, %union.anon, ptr }
%union.anon = type { i64 }

@.str = private unnamed_addr constant [4 x i8] c"roq\00", align 1
@.str.1 = private unnamed_addr constant [11 x i8] c"raw id RoQ\00", align 1
@ff_roq_muxer = constant %struct.FFOutputFormat { %struct.AVOutputFormat { ptr @.str, ptr @.str.1, ptr null, ptr @.str, i32 81920, i32 38, i32 0, i32 0, ptr null, ptr null }, i32 0, i32 12, ptr @roq_write_header, ptr @ff_raw_write_packet, ptr null, ptr null, ptr null, ptr null, ptr null, ptr null, ptr null, ptr null, ptr null, ptr null }, align 8
@__const.roq_write_header.header = private unnamed_addr constant [8 x i8] c"\84\10\FF\FF\FF\FF\1E\00", align 1
@.str.2 = private unnamed_addr constant [28 x i8] c"Frame rate must be integer\0A\00", align 1
@.str.3 = private unnamed_addr constant [34 x i8] c"Frame rate may not exceed 255fps\0A\00", align 1
@.str.4 = private unnamed_addr constant [42 x i8] c"For vintage compatibility fps must be 30\0A\00", align 1

; Function Attrs: nounwind uwtable
define internal i32 @roq_write_header(ptr noundef %0) #0 {
  %2 = alloca i32, align 4
  %3 = alloca ptr, align 8
  %4 = alloca [8 x i8], align 1
  %5 = alloca i32, align 4
  %6 = alloca i32, align 4
  %7 = alloca i32, align 4
  store ptr %0, ptr %3, align 8, !tbaa !4
  call void @llvm.lifetime.start.p0(i64 8, ptr %4) #4
  call void @llvm.memcpy.p0.p0.i64(ptr align 1 %4, ptr align 1 @__const.roq_write_header.header, i64 8, i1 false)
  call void @llvm.lifetime.start.p0(i64 4, ptr %5) #4
  store i32 0, ptr %5, align 4, !tbaa !9
  br label %8

8:                                                ; preds = %67, %1
  %9 = load i32, ptr %5, align 4, !tbaa !9
  %10 = load ptr, ptr %3, align 8, !tbaa !4
  %11 = getelementptr inbounds nuw %struct.AVFormatContext, ptr %10, i32 0, i32 6
  %12 = load i32, ptr %11, align 4, !tbaa !11
  %13 = icmp ult i32 %9, %12
  br i1 %13, label %14, label %70

14:                                               ; preds = %8
  %15 = load ptr, ptr %3, align 8, !tbaa !4
  %16 = getelementptr inbounds nuw %struct.AVFormatContext, ptr %15, i32 0, i32 7
  %17 = load ptr, ptr %16, align 8, !tbaa !27
  %18 = load i32, ptr %5, align 4, !tbaa !9
  %19 = sext i32 %18 to i64
  %20 = getelementptr inbounds ptr, ptr %17, i64 %19
  %21 = load ptr, ptr %20, align 8, !tbaa !28
  %22 = getelementptr inbounds nuw %struct.AVStream, ptr %21, i32 0, i32 3
  %23 = load ptr, ptr %22, align 8, !tbaa !30
  %24 = getelementptr inbounds nuw %struct.AVCodecParameters, ptr %23, i32 0, i32 0
  %25 = load i32, ptr %24, align 8, !tbaa !37
  %26 = icmp eq i32 %25, 0
  br i1 %26, label %27, label %66

27:                                               ; preds = %14
  call void @llvm.lifetime.start.p0(i64 4, ptr %6) #4
  %28 = load ptr, ptr %3, align 8, !tbaa !4
  %29 = getelementptr inbounds nuw %struct.AVFormatContext, ptr %28, i32 0, i32 7
  %30 = load ptr, ptr %29, align 8, !tbaa !27
  %31 = load i32, ptr %5, align 4, !tbaa !9
  %32 = sext i32 %31 to i64
  %33 = getelementptr inbounds ptr, ptr %30, i64 %32
  %34 = load ptr, ptr %33, align 8, !tbaa !28
  %35 = getelementptr inbounds nuw %struct.AVStream, ptr %34, i32 0, i32 13
  %36 = getelementptr inbounds nuw %struct.AVRational, ptr %35, i32 0, i32 1
  %37 = load i32, ptr %36, align 4, !tbaa !40
  %38 = icmp ne i32 %37, 1
  br i1 %38, label %39, label %41

39:                                               ; preds = %27
  %40 = load ptr, ptr %3, align 8, !tbaa !4
  call void (ptr, i32, ptr, ...) @av_log(ptr noundef %40, i32 noundef 16, ptr noundef @.str.2)
  store i32 -22, ptr %2, align 4
  store i32 1, ptr %7, align 4
  br label %64

41:                                               ; preds = %27
  %42 = load ptr, ptr %3, align 8, !tbaa !4
  %43 = getelementptr inbounds nuw %struct.AVFormatContext, ptr %42, i32 0, i32 7
  %44 = load ptr, ptr %43, align 8, !tbaa !27
  %45 = load i32, ptr %5, align 4, !tbaa !9
  %46 = sext i32 %45 to i64
  %47 = getelementptr inbounds ptr, ptr %44, i64 %46
  %48 = load ptr, ptr %47, align 8, !tbaa !28
  %49 = getelementptr inbounds nuw %struct.AVStream, ptr %48, i32 0, i32 13
  %50 = getelementptr inbounds nuw %struct.AVRational, ptr %49, i32 0, i32 0
  %51 = load i32, ptr %50, align 8, !tbaa !41
  store i32 %51, ptr %6, align 4, !tbaa !9
  %52 = icmp ugt i32 %51, 255
  br i1 %52, label %53, label %55

53:                                               ; preds = %41
  %54 = load ptr, ptr %3, align 8, !tbaa !4
  call void (ptr, i32, ptr, ...) @av_log(ptr noundef %54, i32 noundef 16, ptr noundef @.str.3)
  store i32 -22, ptr %2, align 4
  store i32 1, ptr %7, align 4
  br label %64

55:                                               ; preds = %41
  %56 = load i32, ptr %6, align 4, !tbaa !9
  %57 = icmp ne i32 %56, 30
  br i1 %57, label %58, label %60

58:                                               ; preds = %55
  %59 = load ptr, ptr %3, align 8, !tbaa !4
  call void (ptr, i32, ptr, ...) @av_log(ptr noundef %59, i32 noundef 24, ptr noundef @.str.4)
  br label %60

60:                                               ; preds = %58, %55
  %61 = load i32, ptr %6, align 4, !tbaa !9
  %62 = trunc i32 %61 to i8
  %63 = getelementptr inbounds [8 x i8], ptr %4, i64 0, i64 6
  store i8 %62, ptr %63, align 1, !tbaa !42
  store i32 2, ptr %7, align 4
  br label %64

64:                                               ; preds = %60, %53, %39
  call void @llvm.lifetime.end.p0(i64 4, ptr %6) #4
  %65 = load i32, ptr %7, align 4
  switch i32 %65, label %75 [
    i32 2, label %70
  ]

66:                                               ; preds = %14
  br label %67

67:                                               ; preds = %66
  %68 = load i32, ptr %5, align 4, !tbaa !9
  %69 = add nsw i32 %68, 1
  store i32 %69, ptr %5, align 4, !tbaa !9
  br label %8, !llvm.loop !43

70:                                               ; preds = %64, %8
  %71 = load ptr, ptr %3, align 8, !tbaa !4
  %72 = getelementptr inbounds nuw %struct.AVFormatContext, ptr %71, i32 0, i32 4
  %73 = load ptr, ptr %72, align 8, !tbaa !45
  %74 = getelementptr inbounds [8 x i8], ptr %4, i64 0, i64 0
  call void @avio_write(ptr noundef %73, ptr noundef %74, i32 noundef 8)
  store i32 0, ptr %2, align 4
  store i32 1, ptr %7, align 4
  br label %75

75:                                               ; preds = %70, %64
  call void @llvm.lifetime.end.p0(i64 4, ptr %5) #4
  call void @llvm.lifetime.end.p0(i64 8, ptr %4) #4
  %76 = load i32, ptr %2, align 4
  ret i32 %76
}

declare i32 @ff_raw_write_packet(ptr noundef, ptr noundef) #1

; Function Attrs: nocallback nofree nosync nounwind willreturn memory(argmem: readwrite)
declare void @llvm.lifetime.start.p0(i64 immarg, ptr captures(none)) #2

; Function Attrs: nocallback nofree nounwind willreturn memory(argmem: readwrite)
declare void @llvm.memcpy.p0.p0.i64(ptr noalias writeonly captures(none), ptr noalias readonly captures(none), i64, i1 immarg) #3

declare void @av_log(ptr noundef, i32 noundef, ptr noundef, ...) #1

; Function Attrs: nocallback nofree nosync nounwind willreturn memory(argmem: readwrite)
declare void @llvm.lifetime.end.p0(i64 immarg, ptr captures(none)) #2

declare void @avio_write(ptr noundef, ptr noundef, i32 noundef) #1


!llvm.module.flags = !{!0, !1, !2, !3}

!0 = !{i32 1, !"wchar_size", i32 4}
!1 = !{i32 8, !"PIC Level", i32 2}
!2 = !{i32 7, !"uwtable", i32 2}
!3 = !{i32 1, !"override-stack-alignment", i32 16}
!4 = !{!5, !5, i64 0}
!5 = !{!"p1 _ZTS15AVFormatContext", !6, i64 0}
!6 = !{!"any pointer", !7, i64 0}
!7 = !{!"omnipotent char", !8, i64 0}
!8 = !{!"Simple C/C++ TBAA"}
!9 = !{!10, !10, i64 0}
!10 = !{!"int", !7, i64 0}
!11 = !{!12, !10, i64 44}
!12 = !{!"AVFormatContext", !13, i64 0, !14, i64 8, !15, i64 16, !6, i64 24, !16, i64 32, !10, i64 40, !10, i64 44, !17, i64 48, !10, i64 56, !19, i64 64, !10, i64 72, !20, i64 80, !21, i64 88, !22, i64 96, !22, i64 104, !22, i64 112, !10, i64 120, !10, i64 124, !10, i64 128, !22, i64 136, !22, i64 144, !21, i64 152, !10, i64 160, !10, i64 164, !23, i64 168, !10, i64 176, !10, i64 180, !10, i64 184, !10, i64 188, !24, i64 192, !22, i64 200, !10, i64 208, !10, i64 212, !25, i64 216, !10, i64 232, !10, i64 236, !10, i64 240, !10, i64 244, !22, i64 248, !10, i64 256, !10, i64 260, !10, i64 264, !10, i64 268, !10, i64 272, !10, i64 276, !10, i64 280, !10, i64 284, !10, i64 288, !10, i64 292, !10, i64 296, !10, i64 300, !22, i64 304, !10, i64 312, !10, i64 316, !10, i64 320, !10, i64 324, !10, i64 328, !21, i64 336, !21, i64 344, !21, i64 352, !21, i64 360, !10, i64 368, !26, i64 376, !26, i64 384, !26, i64 392, !26, i64 400, !10, i64 408, !6, i64 416, !6, i64 424, !22, i64 432, !21, i64 440, !6, i64 448, !6, i64 456, !22, i64 464}
!13 = !{!"p1 _ZTS7AVClass", !6, i64 0}
!14 = !{!"p1 _ZTS13AVInputFormat", !6, i64 0}
!15 = !{!"p1 _ZTS14AVOutputFormat", !6, i64 0}
!16 = !{!"p1 _ZTS11AVIOContext", !6, i64 0}
!17 = !{!"p2 _ZTS8AVStream", !18, i64 0}
!18 = !{!"any p2 pointer", !6, i64 0}
!19 = !{!"p2 _ZTS13AVStreamGroup", !18, i64 0}
!20 = !{!"p2 _ZTS9AVChapter", !18, i64 0}
!21 = !{!"p1 omnipotent char", !6, i64 0}
!22 = !{!"long", !7, i64 0}
!23 = !{!"p2 _ZTS9AVProgram", !18, i64 0}
!24 = !{!"p1 _ZTS12AVDictionary", !6, i64 0}
!25 = !{!"AVIOInterruptCB", !6, i64 0, !6, i64 8}
!26 = !{!"p1 _ZTS7AVCodec", !6, i64 0}
!27 = !{!12, !17, i64 48}
!28 = !{!29, !29, i64 0}
!29 = !{!"p1 _ZTS8AVStream", !6, i64 0}
!30 = !{!31, !32, i64 16}
!31 = !{!"AVStream", !13, i64 0, !10, i64 8, !10, i64 12, !32, i64 16, !6, i64 24, !33, i64 32, !22, i64 40, !22, i64 48, !22, i64 56, !10, i64 64, !10, i64 68, !33, i64 72, !24, i64 80, !33, i64 88, !34, i64 96, !10, i64 200, !33, i64 204, !10, i64 212}
!32 = !{!"p1 _ZTS17AVCodecParameters", !6, i64 0}
!33 = !{!"AVRational", !10, i64 0, !10, i64 4}
!34 = !{!"AVPacket", !35, i64 0, !22, i64 8, !22, i64 16, !21, i64 24, !10, i64 32, !10, i64 36, !10, i64 40, !36, i64 48, !10, i64 56, !22, i64 64, !22, i64 72, !6, i64 80, !35, i64 88, !33, i64 96}
!35 = !{!"p1 _ZTS11AVBufferRef", !6, i64 0}
!36 = !{!"p1 _ZTS16AVPacketSideData", !6, i64 0}
!37 = !{!38, !10, i64 0}
!38 = !{!"AVCodecParameters", !10, i64 0, !10, i64 4, !10, i64 8, !21, i64 16, !10, i64 24, !36, i64 32, !10, i64 40, !10, i64 44, !22, i64 48, !10, i64 56, !10, i64 60, !10, i64 64, !10, i64 68, !10, i64 72, !10, i64 76, !33, i64 80, !33, i64 88, !10, i64 96, !10, i64 100, !10, i64 104, !10, i64 108, !10, i64 112, !10, i64 116, !10, i64 120, !39, i64 128, !10, i64 152, !10, i64 156, !10, i64 160, !10, i64 164, !10, i64 168, !10, i64 172}
!39 = !{!"AVChannelLayout", !10, i64 0, !10, i64 4, !7, i64 8, !6, i64 16}
!40 = !{!31, !10, i64 92}
!41 = !{!31, !10, i64 88}
!42 = !{!7, !7, i64 0}
!43 = distinct !{!43, !44}
!44 = !{!"llvm.loop.mustprogress"}
!45 = !{!12, !16, i64 32}
