; ModuleID = 'bench/ffmpeg/original/idroqenc.ll'
source_filename = "bench/ffmpeg/original/idroqenc.ll"
target datalayout = "e-m:e-p270:32:32-p271:32:32-p272:64:64-i64:64-i128:128-f80:128-n8:16:32:64-S128"
target triple = "x86_64-pc-linux-gnu"

%struct.FFOutputFormat = type { %struct.AVOutputFormat, i32, i32, ptr, ptr, ptr, ptr, ptr, ptr, ptr, ptr, ptr, ptr, ptr, ptr }
%struct.AVOutputFormat = type { ptr, ptr, ptr, ptr, i32, i32, i32, i32, ptr, ptr }

@.str = private unnamed_addr constant [4 x i8] c"roq\00", align 1
@.str.1 = private unnamed_addr constant [11 x i8] c"raw id RoQ\00", align 1
@ff_roq_muxer = local_unnamed_addr constant %struct.FFOutputFormat { %struct.AVOutputFormat { ptr @.str, ptr @.str.1, ptr null, ptr @.str, i32 81920, i32 38, i32 0, i32 0, ptr null, ptr null }, i32 0, i32 12, ptr @roq_write_header, ptr @ff_raw_write_packet, ptr null, ptr null, ptr null, ptr null, ptr null, ptr null, ptr null, ptr null, ptr null, ptr null }, align 8
@.str.2 = private unnamed_addr constant [28 x i8] c"Frame rate must be integer\0A\00", align 1
@.str.3 = private unnamed_addr constant [34 x i8] c"Frame rate may not exceed 255fps\0A\00", align 1
@.str.4 = private unnamed_addr constant [42 x i8] c"For vintage compatibility fps must be 30\0A\00", align 1

; Function Attrs: nounwind uwtable
define internal range(i32 -22, 1) i32 @roq_write_header(ptr noundef %0) #0 {
  %2 = alloca [8 x i8], align 8
  call void @llvm.lifetime.start.p0(i64 8, ptr nonnull %2) #3
  store i64 8725724277969028, ptr %2, align 8
  %3 = getelementptr inbounds nuw i8, ptr %0, i64 44
  %4 = load i32, ptr %3, align 4, !tbaa !4
  %.not21 = icmp eq i32 %4, 0
  br i1 %.not21, label %.loopexit, label %.lr.ph

.lr.ph:                                           ; preds = %1
  %5 = getelementptr inbounds nuw i8, ptr %0, i64 48
  %6 = load ptr, ptr %5, align 8, !tbaa !24
  %wide.trip.count = zext i32 %4 to i64
  br label %8

7:                                                ; preds = %8
  %indvars.iv.next = add nuw nsw i64 %indvars.iv, 1
  %exitcond.not = icmp eq i64 %indvars.iv.next, %wide.trip.count
  br i1 %exitcond.not, label %.loopexit, label %8, !llvm.loop !25

8:                                                ; preds = %.lr.ph, %7
  %indvars.iv = phi i64 [ 0, %.lr.ph ], [ %indvars.iv.next, %7 ]
  %9 = getelementptr inbounds nuw ptr, ptr %6, i64 %indvars.iv
  %10 = load ptr, ptr %9, align 8, !tbaa !27
  %11 = getelementptr inbounds nuw i8, ptr %10, i64 16
  %12 = load ptr, ptr %11, align 8, !tbaa !29
  %13 = load i32, ptr %12, align 8, !tbaa !36
  %14 = icmp eq i32 %13, 0
  br i1 %14, label %15, label %7

15:                                               ; preds = %8
  %16 = getelementptr inbounds nuw i8, ptr %10, i64 92
  %17 = load i32, ptr %16, align 4, !tbaa !39
  %.not = icmp eq i32 %17, 1
  br i1 %.not, label %19, label %18

18:                                               ; preds = %15
  tail call void (ptr, i32, ptr, ...) @av_log(ptr noundef nonnull %0, i32 noundef 16, ptr noundef nonnull @.str.2) #3
  br label %.critedge

19:                                               ; preds = %15
  %20 = getelementptr inbounds nuw i8, ptr %10, i64 88
  %21 = load i32, ptr %20, align 8, !tbaa !40
  %22 = icmp ugt i32 %21, 255
  br i1 %22, label %23, label %24

23:                                               ; preds = %19
  tail call void (ptr, i32, ptr, ...) @av_log(ptr noundef nonnull %0, i32 noundef 16, ptr noundef nonnull @.str.3) #3
  br label %.critedge

24:                                               ; preds = %19
  %.not19 = icmp eq i32 %21, 30
  br i1 %.not19, label %26, label %25

25:                                               ; preds = %24
  tail call void (ptr, i32, ptr, ...) @av_log(ptr noundef nonnull %0, i32 noundef 24, ptr noundef nonnull @.str.4) #3
  br label %26

26:                                               ; preds = %25, %24
  %27 = trunc nuw i32 %21 to i8
  %28 = getelementptr inbounds nuw i8, ptr %2, i64 6
  store i8 %27, ptr %28, align 2, !tbaa !41
  br label %.loopexit

.loopexit:                                        ; preds = %7, %1, %26
  %29 = getelementptr inbounds nuw i8, ptr %0, i64 32
  %30 = load ptr, ptr %29, align 8, !tbaa !42
  call void @avio_write(ptr noundef %30, ptr noundef nonnull %2, i32 noundef 8) #3
  br label %.critedge

.critedge:                                        ; preds = %18, %23, %.loopexit
  %.1 = phi i32 [ 0, %.loopexit ], [ -22, %23 ], [ -22, %18 ]
  call void @llvm.lifetime.end.p0(i64 8, ptr nonnull %2) #3
  ret i32 %.1
}

declare i32 @ff_raw_write_packet(ptr noundef, ptr noundef) #1

; Function Attrs: mustprogress nocallback nofree nosync nounwind willreturn memory(argmem: readwrite)
declare void @llvm.lifetime.start.p0(i64 immarg, ptr captures(none)) #2

declare void @av_log(ptr noundef, i32 noundef, ptr noundef, ...) local_unnamed_addr #1

; Function Attrs: mustprogress nocallback nofree nosync nounwind willreturn memory(argmem: readwrite)
declare void @llvm.lifetime.end.p0(i64 immarg, ptr captures(none)) #2

declare void @avio_write(ptr noundef, ptr noundef, i32 noundef) local_unnamed_addr #1


!llvm.module.flags = !{!0, !1, !2, !3}

!0 = !{i32 1, !"wchar_size", i32 4}
!1 = !{i32 8, !"PIC Level", i32 2}
!2 = !{i32 7, !"uwtable", i32 2}
!3 = !{i32 1, !"override-stack-alignment", i32 16}
!4 = !{!5, !13, i64 44}
!5 = !{!"AVFormatContext", !6, i64 0, !10, i64 8, !11, i64 16, !7, i64 24, !12, i64 32, !13, i64 40, !13, i64 44, !14, i64 48, !13, i64 56, !16, i64 64, !13, i64 72, !17, i64 80, !18, i64 88, !19, i64 96, !19, i64 104, !19, i64 112, !13, i64 120, !13, i64 124, !13, i64 128, !19, i64 136, !19, i64 144, !18, i64 152, !13, i64 160, !13, i64 164, !20, i64 168, !13, i64 176, !13, i64 180, !13, i64 184, !13, i64 188, !21, i64 192, !19, i64 200, !13, i64 208, !13, i64 212, !22, i64 216, !13, i64 232, !13, i64 236, !13, i64 240, !13, i64 244, !19, i64 248, !13, i64 256, !13, i64 260, !13, i64 264, !13, i64 268, !13, i64 272, !13, i64 276, !13, i64 280, !13, i64 284, !13, i64 288, !13, i64 292, !13, i64 296, !13, i64 300, !19, i64 304, !13, i64 312, !13, i64 316, !13, i64 320, !13, i64 324, !13, i64 328, !18, i64 336, !18, i64 344, !18, i64 352, !18, i64 360, !13, i64 368, !23, i64 376, !23, i64 384, !23, i64 392, !23, i64 400, !13, i64 408, !7, i64 416, !7, i64 424, !19, i64 432, !18, i64 440, !7, i64 448, !7, i64 456, !19, i64 464}
!6 = !{!"p1 _ZTS7AVClass", !7, i64 0}
!7 = !{!"any pointer", !8, i64 0}
!8 = !{!"omnipotent char", !9, i64 0}
!9 = !{!"Simple C/C++ TBAA"}
!10 = !{!"p1 _ZTS13AVInputFormat", !7, i64 0}
!11 = !{!"p1 _ZTS14AVOutputFormat", !7, i64 0}
!12 = !{!"p1 _ZTS11AVIOContext", !7, i64 0}
!13 = !{!"int", !8, i64 0}
!14 = !{!"p2 _ZTS8AVStream", !15, i64 0}
!15 = !{!"any p2 pointer", !7, i64 0}
!16 = !{!"p2 _ZTS13AVStreamGroup", !15, i64 0}
!17 = !{!"p2 _ZTS9AVChapter", !15, i64 0}
!18 = !{!"p1 omnipotent char", !7, i64 0}
!19 = !{!"long", !8, i64 0}
!20 = !{!"p2 _ZTS9AVProgram", !15, i64 0}
!21 = !{!"p1 _ZTS12AVDictionary", !7, i64 0}
!22 = !{!"AVIOInterruptCB", !7, i64 0, !7, i64 8}
!23 = !{!"p1 _ZTS7AVCodec", !7, i64 0}
!24 = !{!5, !14, i64 48}
!25 = distinct !{!25, !26}
!26 = !{!"llvm.loop.mustprogress"}
!27 = !{!28, !28, i64 0}
!28 = !{!"p1 _ZTS8AVStream", !7, i64 0}
!29 = !{!30, !31, i64 16}
!30 = !{!"AVStream", !6, i64 0, !13, i64 8, !13, i64 12, !31, i64 16, !7, i64 24, !32, i64 32, !19, i64 40, !19, i64 48, !19, i64 56, !13, i64 64, !13, i64 68, !32, i64 72, !21, i64 80, !32, i64 88, !33, i64 96, !13, i64 200, !32, i64 204, !13, i64 212}
!31 = !{!"p1 _ZTS17AVCodecParameters", !7, i64 0}
!32 = !{!"AVRational", !13, i64 0, !13, i64 4}
!33 = !{!"AVPacket", !34, i64 0, !19, i64 8, !19, i64 16, !18, i64 24, !13, i64 32, !13, i64 36, !13, i64 40, !35, i64 48, !13, i64 56, !19, i64 64, !19, i64 72, !7, i64 80, !34, i64 88, !32, i64 96}
!34 = !{!"p1 _ZTS11AVBufferRef", !7, i64 0}
!35 = !{!"p1 _ZTS16AVPacketSideData", !7, i64 0}
!36 = !{!37, !13, i64 0}
!37 = !{!"AVCodecParameters", !13, i64 0, !13, i64 4, !13, i64 8, !18, i64 16, !13, i64 24, !35, i64 32, !13, i64 40, !13, i64 44, !19, i64 48, !13, i64 56, !13, i64 60, !13, i64 64, !13, i64 68, !13, i64 72, !13, i64 76, !32, i64 80, !32, i64 88, !13, i64 96, !13, i64 100, !13, i64 104, !13, i64 108, !13, i64 112, !13, i64 116, !13, i64 120, !38, i64 128, !13, i64 152, !13, i64 156, !13, i64 160, !13, i64 164, !13, i64 168, !13, i64 172}
!38 = !{!"AVChannelLayout", !13, i64 0, !13, i64 4, !8, i64 8, !7, i64 16}
!39 = !{!30, !13, i64 92}
!40 = !{!30, !13, i64 88}
!41 = !{!8, !8, i64 0}
!42 = !{!5, !12, i64 32}
